target datalayout = "e-m:e-p270:32:32-p271:32:32-p272:64:64-i64:64-i128:128-f80:128-n8:16:32:64-S128"
target triple = "x86_64-pc-linux-gnu"

%struct.ZSTD_customMem = type { ptr, ptr, ptr }
%union.pthread_mutex_t = type { %struct.__pthread_mutex_s }
%struct.__pthread_mutex_s = type { i32, i32, i32, i32, i32, i16, i16, %struct.__pthread_internal_list }
%struct.__pthread_internal_list = type { ptr, ptr }
%struct.ZSTDMT_CCtxPool = type { %union.pthread_mutex_t, i32, i32, %struct.ZSTD_customMem, ptr }

; Function Attrs: inlinehint nounwind uwtable
define internal void @ZSTD_customFree(ptr noundef %0, ptr noundef byval(%struct.ZSTD_customMem) align 8 %1) #1 {
  %3 = alloca ptr, align 8
  store ptr %0, ptr %3, align 8, !tbaa !16
  %4 = load ptr, ptr %3, align 8, !tbaa !16
  %5 = icmp ne ptr %4, null
  br i1 %5, label %6, label %19

6:                                                ; preds = %2
  %7 = getelementptr inbounds nuw %struct.ZSTD_customMem, ptr %1, i32 0, i32 1
  %8 = load ptr, ptr %7, align 8, !tbaa !12
  %9 = icmp ne ptr %8, null
  br i1 %9, label %10, label %16

10:                                               ; preds = %6
  %11 = getelementptr inbounds nuw %struct.ZSTD_customMem, ptr %1, i32 0, i32 1
  %12 = load ptr, ptr %11, align 8, !tbaa !12
  %13 = getelementptr inbounds nuw %struct.ZSTD_customMem, ptr %1, i32 0, i32 2
  %14 = load ptr, ptr %13, align 8, !tbaa !72
  %15 = load ptr, ptr %3, align 8, !tbaa !16
  call void %12(ptr noundef %14, ptr noundef %15)
  br label %18

16:                                               ; preds = %6
  %17 = load ptr, ptr %3, align 8, !tbaa !16
  call void @free(ptr noundef %17) #11
  br label %18

18:                                               ; preds = %16, %10
  br label %19

19:                                               ; preds = %18, %2
  ret void
}

; Function Attrs: nounwind uwtable
define internal void @ZSTDMT_freeCCtxPool(ptr noundef %0) #0 {
  %2 = alloca ptr, align 8
  %3 = alloca i32, align 4
  store ptr %0, ptr %2, align 8, !tbaa !16
  %4 = load ptr, ptr %2, align 8, !tbaa !16
  %5 = icmp ne ptr %4, null
  br i1 %5, label %7, label %6

6:                                                ; preds = %1
  br label %44

7:                                                ; preds = %1
  %8 = load ptr, ptr %2, align 8, !tbaa !16
  %9 = getelementptr inbounds nuw %struct.ZSTDMT_CCtxPool, ptr %8, i32 0, i32 0
  %10 = call i32 @pthread_mutex_destroy(ptr noundef %9) #11
  %11 = load ptr, ptr %2, align 8, !tbaa !16
  %12 = getelementptr inbounds nuw %struct.ZSTDMT_CCtxPool, ptr %11, i32 0, i32 4
  %13 = load ptr, ptr %12, align 8, !tbaa !63
  %14 = icmp ne ptr %13, null
  br i1 %14, label %15, label %40

15:                                               ; preds = %7
  call void @llvm.lifetime.start.p0(i64 4, ptr %3) #11
  store i32 0, ptr %3, align 4, !tbaa !3
  br label %16

16:                                               ; preds = %31, %15
  %17 = load i32, ptr %3, align 4, !tbaa !3
  %18 = load ptr, ptr %2, align 8, !tbaa !16
  %19 = getelementptr inbounds nuw %struct.ZSTDMT_CCtxPool, ptr %18, i32 0, i32 1
  %20 = load i32, ptr %19, align 8, !tbaa !66
  %21 = icmp slt i32 %17, %20
  br i1 %21, label %22, label %34

22:                                               ; preds = %16
  %23 = load ptr, ptr %2, align 8, !tbaa !16
  %24 = getelementptr inbounds nuw %struct.ZSTDMT_CCtxPool, ptr %23, i32 0, i32 4
  %25 = load ptr, ptr %24, align 8, !tbaa !63
  %26 = load i32, ptr %3, align 4, !tbaa !3
  %27 = sext i32 %26 to i64
  %28 = getelementptr inbounds ptr, ptr %25, i64 %27
  %29 = load ptr, ptr %28, align 8, !tbaa !67
  %30 = call i64 @ZSTD_freeCCtx(ptr noundef %29)
  br label %31

31:                                               ; preds = %22
  %32 = load i32, ptr %3, align 4, !tbaa !3
  %33 = add nsw i32 %32, 1
  store i32 %33, ptr %3, align 4, !tbaa !3
  br label %16, !llvm.loop !69

34:                                               ; preds = %16
  %35 = load ptr, ptr %2, align 8, !tbaa !16
  %36 = getelementptr inbounds nuw %struct.ZSTDMT_CCtxPool, ptr %35, i32 0, i32 4
  %37 = load ptr, ptr %36, align 8, !tbaa !63
  %38 = load ptr, ptr %2, align 8, !tbaa !16
  %39 = getelementptr inbounds nuw %struct.ZSTDMT_CCtxPool, ptr %38, i32 0, i32 3
  call void @ZSTD_customFree(ptr noundef %37, ptr noundef byval(%struct.ZSTD_customMem) align 8 %39)
  call void @llvm.lifetime.end.p0(i64 4, ptr %3) #11
  br label %40

40:                                               ; preds = %34, %7
  %41 = load ptr, ptr %2, align 8, !tbaa !16
  %42 = load ptr, ptr %2, align 8, !tbaa !16
  %43 = getelementptr inbounds nuw %struct.ZSTDMT_CCtxPool, ptr %42, i32 0, i32 3
  call void @ZSTD_customFree(ptr noundef %41, ptr noundef byval(%struct.ZSTD_customMem) align 8 %43)
  br label %44

44:                                               ; preds = %40, %6
  ret void
}