; Function Attrs: nounwind uwtable
define internal fastcc void @ZSTDMT_freeCCtxPool(ptr noundef %0) unnamed_addr #0 {
  %.not = icmp eq ptr %0, null
  br i1 %.not, label %ZSTD_customFree.exit18, label %2

2:                                                ; preds = %1
  %3 = tail call i32 @pthread_mutex_destroy(ptr noundef nonnull %0) #14
  %4 = getelementptr inbounds nuw i8, ptr %0, i64 72
  %5 = load ptr, ptr %4, align 8, !tbaa !59
  %.not12 = icmp eq ptr %5, null
  br i1 %.not12, label %19, label %.preheader

.preheader:                                       ; preds = %2
  %6 = getelementptr inbounds nuw i8, ptr %0, i64 40
  %7 = load i32, ptr %6, align 8, !tbaa !62
  %8 = icmp sgt i32 %7, 0
  br i1 %8, label %.lr.ph, label %._crit_edge.thread

.lr.ph:                                           ; preds = %.preheader, %.lr.ph
  %indvars.iv = phi i64 [ %indvars.iv.next, %.lr.ph ], [ 0, %.preheader ]
  %9 = load ptr, ptr %4, align 8, !tbaa !59
  %10 = getelementptr inbounds nuw ptr, ptr %9, i64 %indvars.iv
  %11 = load ptr, ptr %10, align 8, !tbaa !63
  %12 = tail call i64 @ZSTD_freeCCtx(ptr noundef %11) #14
  %indvars.iv.next = add nuw nsw i64 %indvars.iv, 1
  %13 = load i32, ptr %6, align 8, !tbaa !62
  %14 = sext i32 %13 to i64
  %15 = icmp slt i64 %indvars.iv.next, %14
  br i1 %15, label %.lr.ph, label %._crit_edge, !llvm.loop !65

._crit_edge:                                      ; preds = %.lr.ph
  %.pre = load ptr, ptr %4, align 8, !tbaa !59
  %.not.i = icmp eq ptr %.pre, null
  br i1 %.not.i, label %19, label %._crit_edge.thread

._crit_edge.thread:                               ; preds = %.preheader, %._crit_edge
  %16 = phi ptr [ %.pre, %._crit_edge ], [ %5, %.preheader ]
  %.val24.in = getelementptr i8, ptr %0, i64 56
  %.val24 = load ptr, ptr %.val24.in, align 8
  %.not4.i = icmp eq ptr %.val24, null
  br i1 %.not4.i, label %18, label %17

17:                                               ; preds = %._crit_edge.thread
  %.val1325.in = getelementptr i8, ptr %0, i64 64
  %.val1325 = load ptr, ptr %.val1325.in, align 8
  tail call void %.val24(ptr noundef %.val1325, ptr noundef nonnull %16) #14
  br label %19

18:                                               ; preds = %._crit_edge.thread
  tail call void @free(ptr noundef nonnull %16) #14
  br label %19

19:                                               ; preds = %2, %._crit_edge, %17, %18
  %20 = getelementptr i8, ptr %0, i64 56
  %.val14 = load ptr, ptr %20, align 8
  %.not4.i17 = icmp eq ptr %.val14, null
  br i1 %.not4.i17, label %23, label %21

21:                                               ; preds = %19
  %22 = getelementptr i8, ptr %0, i64 64
  %.val15 = load ptr, ptr %22, align 8
  tail call void %.val14(ptr noundef %.val15, ptr noundef nonnull %0) #14
  br label %ZSTD_customFree.exit18

23:                                               ; preds = %19
  tail call void @free(ptr noundef nonnull %0) #14
  br label %ZSTD_customFree.exit18

ZSTD_customFree.exit18:                           ; preds = %23, %21, %1
  ret void
}